   1               		.file	"nmea.c"
   2               	__SREG__ = 0x3f
   3               	__SP_H__ = 0x3e
   4               	__SP_L__ = 0x3d
   5               	__CCP__ = 0x34
   6               	__tmp_reg__ = 0
   7               	__zero_reg__ = 1
   8               		.global __do_copy_data
   9               		.global __do_clear_bss
  10               		.text
  11               	.Ltext0:
  12               		.cfi_sections	.debug_frame
  13               	.global	nmea_checksum
  15               	nmea_checksum:
  16               	.LFB2:
  17               		.file 1 "nmea/nmea.c"
   1:nmea/nmea.c   **** /*
   2:nmea/nmea.c   ****  * nmea.c
   3:nmea/nmea.c   ****  *
   4:nmea/nmea.c   ****  *  Created on: Dec 25, 2012
   5:nmea/nmea.c   ****  *      Author: jcole
   6:nmea/nmea.c   ****  */
   7:nmea/nmea.c   **** 
   8:nmea/nmea.c   **** #include <stdio.h>
   9:nmea/nmea.c   **** #include <stdlib.h>
  10:nmea/nmea.c   **** #include <string.h>
  11:nmea/nmea.c   **** #include <avr/pgmspace.h>
  12:nmea/nmea.c   **** #include "nmea.h"
  13:nmea/nmea.c   **** 
  14:nmea/nmea.c   **** char nmea_checksum(char *s)
  15:nmea/nmea.c   **** {
  18               		.loc 1 15 0
  19               		.cfi_startproc
  20               	.LVL0:
  21               	/* prologue: function */
  22               	/* frame size = 0 */
  23               	/* stack size = 0 */
  24               	.L__stack_usage = 0
  25 0000 FC01      		movw r30,r24
  26               	.LVL1:
  16:nmea/nmea.c   ****   char checksum = 0;
  17:nmea/nmea.c   ****   if(*s++ != '$') return 0;
  27               		.loc 1 17 0
  28 0002 8081      		ld r24,Z
  29               	.LVL2:
  30 0004 8432      		cpi r24,lo8(36)
  31 0006 01F0      		breq .L9
  32               	.L5:
  18:nmea/nmea.c   ****   for(; *s != '*' && *s != 0; s++)
  33               		.loc 1 18 0
  34 0008 80E0      		ldi r24,lo8(0)
  35 000a 0895      		ret
  36               	.L9:
  37               		.loc 1 18 0 is_stmt 0 discriminator 1
  38 000c 9181      		ldd r25,Z+1
  39 000e 9A32      		cpi r25,lo8(42)
  40 0010 01F0      		breq .L5
  41               		.loc 1 18 0
  42 0012 9923      		tst r25
  43 0014 01F0      		breq .L6
  14:nmea/nmea.c   **** char nmea_checksum(char *s)
  44               		.loc 1 14 0 is_stmt 1
  45 0016 3296      		adiw r30,2
  46               	.LVL3:
  47 0018 80E0      		ldi r24,lo8(0)
  48 001a 00C0      		rjmp .L3
  49               	.LVL4:
  50               	.L11:
  51               		.loc 1 18 0 discriminator 2
  52 001c 9923      		tst r25
  53 001e 01F0      		breq .L10
  54               	.LVL5:
  55               	.L3:
  19:nmea/nmea.c   ****   {
  20:nmea/nmea.c   ****     checksum ^= *s;
  56               		.loc 1 20 0 discriminator 1
  57 0020 8927      		eor r24,r25
  58               	.LVL6:
  18:nmea/nmea.c   ****   for(; *s != '*' && *s != 0; s++)
  59               		.loc 1 18 0 discriminator 1
  60 0022 9191      		ld r25,Z+
  61 0024 9A32      		cpi r25,lo8(42)
  62 0026 01F4      		brne .L11
  21:nmea/nmea.c   ****   }
  22:nmea/nmea.c   ****   return checksum;
  23:nmea/nmea.c   **** }
  63               		.loc 1 23 0
  64 0028 0895      		ret
  65               	.L10:
  66 002a 0895      		ret
  67               	.LVL7:
  68               	.L6:
  18:nmea/nmea.c   ****   for(; *s != '*' && *s != 0; s++)
  69               		.loc 1 18 0
  70 002c 80E0      		ldi r24,lo8(0)
  71               		.loc 1 23 0
  72 002e 0895      		ret
  73               		.cfi_endproc
  74               	.LFE2:
  76               		.data
  77               	.LC0:
  78 0000 2C00      		.string	","
  79               		.text
  80               	.global	nmea_parse_gprmc
  82               	nmea_parse_gprmc:
  83               	.LFB3:
  24:nmea/nmea.c   **** 
  25:nmea/nmea.c   **** unsigned int nmea_parse_gprmc(char *sentence, nmea_gprmc_t *data)
  26:nmea/nmea.c   **** {
  84               		.loc 1 26 0
  85               		.cfi_startproc
  86               	.LVL8:
  87 0030 2F92      		push r2
  88               	.LCFI0:
  89               		.cfi_def_cfa_offset 3
  90               		.cfi_offset 2, -2
  91 0032 3F92      		push r3
  92               	.LCFI1:
  93               		.cfi_def_cfa_offset 4
  94               		.cfi_offset 3, -3
  95 0034 4F92      		push r4
  96               	.LCFI2:
  97               		.cfi_def_cfa_offset 5
  98               		.cfi_offset 4, -4
  99 0036 5F92      		push r5
 100               	.LCFI3:
 101               		.cfi_def_cfa_offset 6
 102               		.cfi_offset 5, -5
 103 0038 6F92      		push r6
 104               	.LCFI4:
 105               		.cfi_def_cfa_offset 7
 106               		.cfi_offset 6, -6
 107 003a 7F92      		push r7
 108               	.LCFI5:
 109               		.cfi_def_cfa_offset 8
 110               		.cfi_offset 7, -7
 111 003c 8F92      		push r8
 112               	.LCFI6:
 113               		.cfi_def_cfa_offset 9
 114               		.cfi_offset 8, -8
 115 003e 9F92      		push r9
 116               	.LCFI7:
 117               		.cfi_def_cfa_offset 10
 118               		.cfi_offset 9, -9
 119 0040 AF92      		push r10
 120               	.LCFI8:
 121               		.cfi_def_cfa_offset 11
 122               		.cfi_offset 10, -10
 123 0042 BF92      		push r11
 124               	.LCFI9:
 125               		.cfi_def_cfa_offset 12
 126               		.cfi_offset 11, -11
 127 0044 CF92      		push r12
 128               	.LCFI10:
 129               		.cfi_def_cfa_offset 13
 130               		.cfi_offset 12, -12
 131 0046 DF92      		push r13
 132               	.LCFI11:
 133               		.cfi_def_cfa_offset 14
 134               		.cfi_offset 13, -13
 135 0048 EF92      		push r14
 136               	.LCFI12:
 137               		.cfi_def_cfa_offset 15
 138               		.cfi_offset 14, -14
 139 004a FF92      		push r15
 140               	.LCFI13:
 141               		.cfi_def_cfa_offset 16
 142               		.cfi_offset 15, -15
 143 004c 0F93      		push r16
 144               	.LCFI14:
 145               		.cfi_def_cfa_offset 17
 146               		.cfi_offset 16, -16
 147 004e 1F93      		push r17
 148               	.LCFI15:
 149               		.cfi_def_cfa_offset 18
 150               		.cfi_offset 17, -17
 151 0050 CF93      		push r28
 152               	.LCFI16:
 153               		.cfi_def_cfa_offset 19
 154               		.cfi_offset 28, -18
 155 0052 DF93      		push r29
 156               	.LCFI17:
 157               		.cfi_def_cfa_offset 20
 158               		.cfi_offset 29, -19
 159 0054 CDB7      		in r28,__SP_L__
 160 0056 DEB7      		in r29,__SP_H__
 161 0058 A097      		sbiw r28,32
 162               	.LCFI18:
 163               		.cfi_def_cfa 28, 52
 164 005a CDBF      		out __SP_L__,r28
 165 005c DEBF      		out __SP_H__,r29
 166               	/* prologue: function */
 167               	/* frame size = 32 */
 168               	/* stack size = 50 */
 169               	.L__stack_usage = 50
 170 005e 8E8B      		std Y+22,r24
 171 0060 9F8B      		std Y+23,r25
 172 0062 6B01      		movw r12,r22
 173               	.LVL9:
  27:nmea/nmea.c   ****   char sentence_checksum;
  28:nmea/nmea.c   ****   float lat_degrees;
  29:nmea/nmea.c   ****   float lat_minutes;
  30:nmea/nmea.c   ****   char  lat_hemisphere;
  31:nmea/nmea.c   ****   float lon_degrees;
  32:nmea/nmea.c   ****   float lon_minutes;
  33:nmea/nmea.c   ****   char  lon_hemisphere;
  34:nmea/nmea.c   ****   char  *token;
  35:nmea/nmea.c   ****   static char *comma = ",";
  36:nmea/nmea.c   ****   char checksum_buffer[3];
  37:nmea/nmea.c   ****   unsigned int invalidity = 0;
  38:nmea/nmea.c   **** 
  39:nmea/nmea.c   ****   /* Pre-amble of "$GPRMC" */
  40:nmea/nmea.c   ****   if(strncmp_P(sentence, PSTR("$GPRMC,"), 7) != 0)
 174               		.loc 1 40 0
 175 0064 8C01      		movw r16,r24
 176 0066 60E0      		ldi r22,lo8(__c.4005)
 177 0068 70E0      		ldi r23,hi8(__c.4005)
 178               	.LVL10:
 179 006a 47E0      		ldi r20,lo8(7)
 180 006c 50E0      		ldi r21,hi8(7)
 181 006e 0E94 0000 		call strncmp_P
 182               	.LVL11:
 183 0072 0097      		sbiw r24,0
 184 0074 01F0      		breq .+2
 185 0076 00C0      		rjmp .L27
 186               	.LVL12:
 187               	.LBB16:
 188               	.LBB17:
  17:nmea/nmea.c   ****   if(*s++ != '$') return 0;
 189               		.loc 1 17 0
 190 0078 D801      		movw r26,r16
 191 007a 8C91      		ld r24,X
 192 007c 8432      		cpi r24,lo8(36)
 193 007e 01F4      		brne .+2
 194 0080 00C0      		rjmp .L52
 195               	.L30:
  18:nmea/nmea.c   ****   for(; *s != '*' && *s != 0; s++)
 196               		.loc 1 18 0
 197 0082 FF24      		clr r15
 198               	.LVL13:
 199               	.L14:
 200               	.LBE17:
 201               	.LBE16:
  41:nmea/nmea.c   ****     return NMEA_INVALID_TYPE;
  42:nmea/nmea.c   **** 
  43:nmea/nmea.c   ****   sentence_checksum = nmea_checksum(sentence);
  44:nmea/nmea.c   **** 
  45:nmea/nmea.c   ****   /* Skip over the pre-amble */
  46:nmea/nmea.c   ****   sentence += 7;
 202               		.loc 1 46 0
 203 0084 095F      		subi r16,lo8(-(7))
 204 0086 1F4F      		sbci r17,hi8(-(7))
 205 0088 0E8B      		std Y+22,r16
 206 008a 1F8B      		std Y+23,r17
  47:nmea/nmea.c   **** 
  48:nmea/nmea.c   ****   /* Zero-fill the return data structure */
  49:nmea/nmea.c   ****   memset(data, 0, sizeof(nmea_gprmc_t));
 207               		.loc 1 49 0
 208 008c 8CE1      		ldi r24,lo8(28)
 209 008e F601      		movw r30,r12
 210 0090 1192      		st Z+,__zero_reg__
 211 0092 8A95      	        dec r24
 212 0094 01F4      		brne .-6
  50:nmea/nmea.c   **** 
  51:nmea/nmea.c   ****   /* Current UTC time */
  52:nmea/nmea.c   ****   if((token = strsep(&sentence, comma)) == NULL)
 213               		.loc 1 52 0
 214 0096 CE01      		movw r24,r28
 215 0098 4696      		adiw r24,22
 216 009a 60E0      		ldi r22,lo8(.LC0)
 217 009c 70E0      		ldi r23,hi8(.LC0)
 218 009e 0E94 0000 		call strsep
 219               	.LVL14:
 220 00a2 0097      		sbiw r24,0
 221 00a4 01F4      		brne .+2
 222 00a6 00C0      		rjmp .L48
  53:nmea/nmea.c   ****     return NMEA_INVALID_SENTENCE;
  54:nmea/nmea.c   **** 
  55:nmea/nmea.c   ****   sscanf_P(token,
 223               		.loc 1 55 0
 224 00a8 2DB7      		in r18,__SP_L__
 225 00aa 3EB7      		in r19,__SP_H__
 226 00ac 2C50      		subi r18,lo8(-(-12))
 227 00ae 3040      		sbci r19,hi8(-(-12))
 228 00b0 2DBF      		out __SP_L__,r18
 229 00b2 3EBF      		out __SP_H__,r19
 230 00b4 EDB7      		in r30,__SP_L__
 231 00b6 FEB7      		in r31,__SP_H__
 232 00b8 3196      		adiw r30,1
 233 00ba ADB7      		in r26,__SP_L__
 234 00bc BEB7      		in r27,__SP_H__
 235 00be 1196      		adiw r26,1
 236 00c0 8D93      		st X+,r24
 237 00c2 9C93      		st X,r25
 238 00c4 1297      		sbiw r26,1+1
 239 00c6 80E0      		ldi r24,lo8(__c.4007)
 240 00c8 90E0      		ldi r25,hi8(__c.4007)
 241               	.LVL15:
 242 00ca 8283      		std Z+2,r24
 243 00cc 9383      		std Z+3,r25
 244 00ce C601      		movw r24,r12
 245 00d0 0696      		adiw r24,6
 246 00d2 8483      		std Z+4,r24
 247 00d4 9583      		std Z+5,r25
 248 00d6 C601      		movw r24,r12
 249 00d8 0796      		adiw r24,7
 250 00da 8683      		std Z+6,r24
 251 00dc 9783      		std Z+7,r25
 252 00de C601      		movw r24,r12
 253 00e0 0896      		adiw r24,8
 254 00e2 8087      		std Z+8,r24
 255 00e4 9187      		std Z+9,r25
 256 00e6 C601      		movw r24,r12
 257 00e8 0996      		adiw r24,9
 258 00ea 8287      		std Z+10,r24
 259 00ec 9387      		std Z+11,r25
 260               		.cfi_escape 0x2e,0xc
 261 00ee 0E94 0000 		call sscanf_P
 262               	.LVL16:
  56:nmea/nmea.c   ****     PSTR("%02hhd%02hhd%02hhd.%03hd"),
  57:nmea/nmea.c   ****     &data->hour,
  58:nmea/nmea.c   ****     &data->minute,
  59:nmea/nmea.c   ****     &data->second,
  60:nmea/nmea.c   ****     &data->millisecond
  61:nmea/nmea.c   ****   );
  62:nmea/nmea.c   **** 
  63:nmea/nmea.c   ****   /* Status of fix: A = Valid; V = Invalid */
  64:nmea/nmea.c   ****   if((token = strsep(&sentence, comma)) == NULL)
 263               		.loc 1 64 0
 264 00f2 EDB7      		in r30,__SP_L__
 265 00f4 FEB7      		in r31,__SP_H__
 266 00f6 3C96      		adiw r30,12
 267 00f8 EDBF      		out __SP_L__,r30
 268 00fa FEBF      		out __SP_H__,r31
 269 00fc CE01      		movw r24,r28
 270 00fe 4696      		adiw r24,22
 271 0100 60E0      		ldi r22,lo8(.LC0)
 272 0102 70E0      		ldi r23,hi8(.LC0)
 273               		.cfi_escape 0x2e,0
 274 0104 0E94 0000 		call strsep
 275               	.LVL17:
 276 0108 0097      		sbiw r24,0
 277 010a 01F4      		brne .+2
 278 010c 00C0      		rjmp .L48
  65:nmea/nmea.c   ****     return NMEA_INVALID_SENTENCE;
  66:nmea/nmea.c   **** 
  67:nmea/nmea.c   ****   sscanf_P(token,
 279               		.loc 1 67 0
 280 010e 00D0      		rcall .
 281 0110 00D0      		rcall .
 282 0112 00D0      		rcall .
 283 0114 EDB7      		in r30,__SP_L__
 284 0116 FEB7      		in r31,__SP_H__
 285 0118 3196      		adiw r30,1
 286 011a ADB7      		in r26,__SP_L__
 287 011c BEB7      		in r27,__SP_H__
 288 011e 1196      		adiw r26,1
 289 0120 8D93      		st X+,r24
 290 0122 9C93      		st X,r25
 291 0124 1297      		sbiw r26,1+1
 292 0126 80E0      		ldi r24,lo8(__c.4009)
 293 0128 90E0      		ldi r25,hi8(__c.4009)
 294               	.LVL18:
 295 012a 8283      		std Z+2,r24
 296 012c 9383      		std Z+3,r25
 297 012e C482      		std Z+4,r12
 298 0130 D582      		std Z+5,r13
 299               		.cfi_escape 0x2e,0x6
 300 0132 0E94 0000 		call sscanf_P
 301               	.LVL19:
  68:nmea/nmea.c   ****     PSTR("%c"),
  69:nmea/nmea.c   ****     &data->status
  70:nmea/nmea.c   ****   );
  71:nmea/nmea.c   **** 
  72:nmea/nmea.c   ****   if(data->status != 'A')
 302               		.loc 1 72 0
 303 0136 EDB7      		in r30,__SP_L__
 304 0138 FEB7      		in r31,__SP_H__
 305 013a 3696      		adiw r30,6
 306 013c EDBF      		out __SP_L__,r30
 307 013e FEBF      		out __SP_H__,r31
 308 0140 D601      		movw r26,r12
 309 0142 8C91      		ld r24,X
 310 0144 8134      		cpi r24,lo8(65)
 311 0146 01F4      		brne .+2
 312 0148 00C0      		rjmp .L53
 313 014a A8E0      		ldi r26,lo8(16392)
 314 014c B0E4      		ldi r27,hi8(16392)
 315 014e AE8F      		std Y+30,r26
 316 0150 BF8F      		std Y+31,r27
 317 0152 E8E2      		ldi r30,lo8(16424)
 318 0154 F0E4      		ldi r31,hi8(16424)
 319 0156 E88F      		std Y+24,r30
 320 0158 F98F      		std Y+25,r31
 321 015a 20E2      		ldi r18,lo8(16416)
 322 015c 30E4      		ldi r19,hi8(16416)
 323 015e 2C8F      		std Y+28,r18
 324 0160 3D8F      		std Y+29,r19
 325 0162 58E1      		ldi r21,lo8(16408)
 326 0164 452E      		mov r4,r21
 327 0166 50E4      		ldi r21,hi8(16408)
 328 0168 552E      		mov r5,r21
 329 016a 68E3      		ldi r22,lo8(16440)
 330 016c 662E      		mov r6,r22
 331 016e 60E4      		ldi r22,hi8(16440)
 332 0170 762E      		mov r7,r22
 333 0172 70E3      		ldi r23,lo8(16432)
 334 0174 A72E      		mov r10,r23
 335 0176 70E4      		ldi r23,hi8(16432)
 336 0178 B72E      		mov r11,r23
 337 017a 10E1      		ldi r17,lo8(16400)
 338 017c 212E      		mov r2,r17
 339 017e 10E4      		ldi r17,hi8(16400)
 340 0180 312E      		mov r3,r17
  73:nmea/nmea.c   ****     invalidity |= NMEA_INVALID_STATUS;
 341               		.loc 1 73 0
 342 0182 80E0      		ldi r24,lo8(16384)
 343 0184 90E4      		ldi r25,hi8(16384)
 344 0186 8A8F      		std Y+26,r24
 345 0188 9B8F      		std Y+27,r25
 346               	.L16:
 347               	.LVL20:
  74:nmea/nmea.c   **** 
  75:nmea/nmea.c   ****   /* Latitude degrees and minutes */
  76:nmea/nmea.c   ****   if((token = strsep(&sentence, comma)) == NULL)
 348               		.loc 1 76 0
 349 018a CE01      		movw r24,r28
 350 018c 4696      		adiw r24,22
 351 018e 60E0      		ldi r22,lo8(.LC0)
 352 0190 70E0      		ldi r23,hi8(.LC0)
 353               		.cfi_escape 0x2e,0
 354 0192 0E94 0000 		call strsep
 355               	.LVL21:
 356 0196 0097      		sbiw r24,0
 357 0198 01F4      		brne .+2
 358 019a 00C0      		rjmp .L48
  77:nmea/nmea.c   ****     return NMEA_INVALID_SENTENCE;
  78:nmea/nmea.c   **** 
  79:nmea/nmea.c   ****   sscanf_P(token,
 359               		.loc 1 79 0
 360 019c ADB7      		in r26,__SP_L__
 361 019e BEB7      		in r27,__SP_H__
 362 01a0 1897      		sbiw r26,8
 363 01a2 ADBF      		out __SP_L__,r26
 364 01a4 BEBF      		out __SP_H__,r27
 365 01a6 EDB7      		in r30,__SP_L__
 366 01a8 FEB7      		in r31,__SP_H__
 367 01aa 3196      		adiw r30,1
 368 01ac 1196      		adiw r26,1
 369 01ae 8D93      		st X+,r24
 370 01b0 9C93      		st X,r25
 371 01b2 1297      		sbiw r26,1+1
 372 01b4 80E0      		ldi r24,lo8(__c.4011)
 373 01b6 90E0      		ldi r25,hi8(__c.4011)
 374               	.LVL22:
 375 01b8 8283      		std Z+2,r24
 376 01ba 9383      		std Z+3,r25
 377 01bc CE01      		movw r24,r28
 378 01be 4296      		adiw r24,18
 379 01c0 8483      		std Z+4,r24
 380 01c2 9583      		std Z+5,r25
 381 01c4 CE01      		movw r24,r28
 382 01c6 0E96      		adiw r24,14
 383 01c8 8683      		std Z+6,r24
 384 01ca 9783      		std Z+7,r25
 385               		.cfi_escape 0x2e,0x8
 386 01cc 0E94 0000 		call sscanf_P
 387               	.LVL23:
  80:nmea/nmea.c   ****     PSTR("%02f%07f"),
  81:nmea/nmea.c   ****     &lat_degrees,
  82:nmea/nmea.c   ****     &lat_minutes
  83:nmea/nmea.c   ****   );
  84:nmea/nmea.c   **** 
  85:nmea/nmea.c   ****   /* Latitude hemisphere */
  86:nmea/nmea.c   ****   if((token = strsep(&sentence, comma)) == NULL)
 388               		.loc 1 86 0
 389 01d0 EDB7      		in r30,__SP_L__
 390 01d2 FEB7      		in r31,__SP_H__
 391 01d4 3896      		adiw r30,8
 392 01d6 EDBF      		out __SP_L__,r30
 393 01d8 FEBF      		out __SP_H__,r31
 394 01da CE01      		movw r24,r28
 395 01dc 4696      		adiw r24,22
 396 01de 60E0      		ldi r22,lo8(.LC0)
 397 01e0 70E0      		ldi r23,hi8(.LC0)
 398               		.cfi_escape 0x2e,0
 399 01e2 0E94 0000 		call strsep
 400               	.LVL24:
 401 01e6 0097      		sbiw r24,0
 402 01e8 01F4      		brne .+2
 403 01ea 00C0      		rjmp .L48
  87:nmea/nmea.c   ****     return NMEA_INVALID_SENTENCE;
  88:nmea/nmea.c   **** 
  89:nmea/nmea.c   ****   sscanf_P(token,
 404               		.loc 1 89 0
 405 01ec 00D0      		rcall .
 406 01ee 00D0      		rcall .
 407 01f0 00D0      		rcall .
 408 01f2 EDB7      		in r30,__SP_L__
 409 01f4 FEB7      		in r31,__SP_H__
 410 01f6 3196      		adiw r30,1
 411 01f8 ADB7      		in r26,__SP_L__
 412 01fa BEB7      		in r27,__SP_H__
 413 01fc 1196      		adiw r26,1
 414 01fe 8D93      		st X+,r24
 415 0200 9C93      		st X,r25
 416 0202 1297      		sbiw r26,1+1
 417 0204 80E0      		ldi r24,lo8(__c.4013)
 418 0206 90E0      		ldi r25,hi8(__c.4013)
 419               	.LVL25:
 420 0208 8283      		std Z+2,r24
 421 020a 9383      		std Z+3,r25
 422 020c CE01      		movw r24,r28
 423 020e 0296      		adiw r24,2
 424 0210 8483      		std Z+4,r24
 425 0212 9583      		std Z+5,r25
 426               		.cfi_escape 0x2e,0x6
 427 0214 0E94 0000 		call sscanf_P
 428               	.LVL26:
  90:nmea/nmea.c   ****     PSTR("%c"),
  91:nmea/nmea.c   ****     &lat_hemisphere
  92:nmea/nmea.c   ****   );
  93:nmea/nmea.c   **** 
  94:nmea/nmea.c   ****   /* Combine latitude degrees and minutes and adjust for hemisphere */
  95:nmea/nmea.c   ****   data->latitude = (lat_degrees + (lat_minutes / 60.0))
 429               		.loc 1 95 0
 430 0218 6E85      		ldd r22,Y+14
 431 021a 7F85      		ldd r23,Y+15
 432 021c 8889      		ldd r24,Y+16
 433 021e 9989      		ldd r25,Y+17
 434 0220 20E0      		ldi r18,lo8(0x42700000)
 435 0222 30E0      		ldi r19,hi8(0x42700000)
 436 0224 40E7      		ldi r20,hlo8(0x42700000)
 437 0226 52E4      		ldi r21,hhi8(0x42700000)
 438               		.cfi_escape 0x2e,0
 439 0228 0E94 0000 		call __divsf3
 440               	.LVL27:
 441 022c 2A89      		ldd r18,Y+18
 442 022e 3B89      		ldd r19,Y+19
 443 0230 4C89      		ldd r20,Y+20
 444 0232 5D89      		ldd r21,Y+21
 445 0234 0E94 0000 		call __addsf3
  96:nmea/nmea.c   ****     * (lat_hemisphere == 'N' ? 1.0 : -1.0);
 446               		.loc 1 96 0
 447 0238 EDB7      		in r30,__SP_L__
 448 023a FEB7      		in r31,__SP_H__
 449 023c 3696      		adiw r30,6
 450 023e EDBF      		out __SP_L__,r30
 451 0240 FEBF      		out __SP_H__,r31
 452               	.LVL28:
 453 0242 2A81      		ldd r18,Y+2
 454 0244 2E34      		cpi r18,lo8(78)
 455 0246 01F4      		brne .+2
 456 0248 00C0      		rjmp .L54
 457 024a 20E0      		ldi r18,lo8(0xbf800000)
 458 024c 30E0      		ldi r19,hi8(0xbf800000)
 459 024e 40E8      		ldi r20,hlo8(0xbf800000)
 460 0250 5FEB      		ldi r21,hhi8(0xbf800000)
 461               	.L17:
 462               		.loc 1 96 0 is_stmt 0 discriminator 3
 463 0252 182F      		mov r17,r24
 464 0254 092F      		mov r16,r25
 465 0256 CB01      		movw r24,r22
 466 0258 A12F      		mov r26,r17
 467 025a B02F      		mov r27,r16
 468 025c BC01      		movw r22,r24
 469 025e CD01      		movw r24,r26
 470 0260 0E94 0000 		call __mulsf3
 471 0264 8B01      		movw r16,r22
 472 0266 E82E      		mov r14,r24
 473 0268 992E      		mov r9,r25
  95:nmea/nmea.c   ****   data->latitude = (lat_degrees + (lat_minutes / 60.0))
 474               		.loc 1 95 0 is_stmt 1 discriminator 3
 475 026a 482F      		mov r20,r24
 476 026c 592F      		mov r21,r25
 477 026e CB01      		movw r24,r22
 478 0270 DA01      		movw r26,r20
 479 0272 F601      		movw r30,r12
 480 0274 8387      		std Z+11,r24
 481 0276 9487      		std Z+12,r25
 482 0278 A587      		std Z+13,r26
 483 027a B687      		std Z+14,r27
  97:nmea/nmea.c   **** 
  98:nmea/nmea.c   ****   if(data->latitude < -90.0 || data->latitude > 90.0)
 484               		.loc 1 98 0 discriminator 3
 485 027c BC01      		movw r22,r24
 486 027e CD01      		movw r24,r26
 487 0280 20E0      		ldi r18,lo8(0xc2b40000)
 488 0282 30E0      		ldi r19,hi8(0xc2b40000)
 489 0284 44EB      		ldi r20,hlo8(0xc2b40000)
 490 0286 52EC      		ldi r21,hhi8(0xc2b40000)
 491 0288 0E94 0000 		call __ltsf2
 492 028c 87FD      		sbrc r24,7
 493 028e 00C0      		rjmp .L18
 494               		.loc 1 98 0 is_stmt 0 discriminator 1
 495 0290 4E2D      		mov r20,r14
 496 0292 592D      		mov r21,r9
 497 0294 C801      		movw r24,r16
 498 0296 DA01      		movw r26,r20
 499 0298 BC01      		movw r22,r24
 500 029a CD01      		movw r24,r26
 501 029c 20E0      		ldi r18,lo8(0x42b40000)
 502 029e 30E0      		ldi r19,hi8(0x42b40000)
 503 02a0 44EB      		ldi r20,hlo8(0x42b40000)
 504 02a2 52E4      		ldi r21,hhi8(0x42b40000)
 505 02a4 0E94 0000 		call __gtsf2
 506 02a8 1816      		cp __zero_reg__,r24
 507 02aa 04F4      		brge .+2
 508 02ac 00C0      		rjmp .L18
 509               		.loc 1 98 0
 510 02ae 4E8C      		ldd r4,Y+30
 511 02b0 5F8C      		ldd r5,Y+31
 512 02b2 688C      		ldd r6,Y+24
 513 02b4 798C      		ldd r7,Y+25
 514 02b6 AC8C      		ldd r10,Y+28
 515 02b8 BD8C      		ldd r11,Y+29
 516 02ba 2A8C      		ldd r2,Y+26
 517 02bc 3B8C      		ldd r3,Y+27
 518 02be A8E0      		ldi r26,lo8(16392)
 519 02c0 B0E4      		ldi r27,hi8(16392)
 520 02c2 AC8F      		std Y+28,r26
 521 02c4 BD8F      		std Y+29,r27
 522 02c6 E0E0      		ldi r30,lo8(16384)
 523 02c8 F0E4      		ldi r31,hi8(16384)
 524 02ca EA8F      		std Y+26,r30
 525 02cc FB8F      		std Y+27,r31
 526 02ce 28E2      		ldi r18,lo8(16424)
 527 02d0 822E      		mov r8,r18
 528 02d2 20E4      		ldi r18,hi8(16424)
 529 02d4 922E      		mov r9,r18
 530 02d6 00E2      		ldi r16,lo8(16416)
 531 02d8 10E4      		ldi r17,hi8(16416)
 532               	.LVL29:
 533               	.L19:
  99:nmea/nmea.c   ****     invalidity |= NMEA_INVALID_LATITUDE;
 100:nmea/nmea.c   **** 
 101:nmea/nmea.c   ****   /* Longitude degrees and minutes */
 102:nmea/nmea.c   ****   if((token = strsep(&sentence, comma)) == NULL)
 534               		.loc 1 102 0 is_stmt 1
 535 02da CE01      		movw r24,r28
 536 02dc 4696      		adiw r24,22
 537 02de 60E0      		ldi r22,lo8(.LC0)
 538 02e0 70E0      		ldi r23,hi8(.LC0)
 539 02e2 0E94 0000 		call strsep
 540               	.LVL30:
 541 02e6 0097      		sbiw r24,0
 542 02e8 01F4      		brne .+2
 543 02ea 00C0      		rjmp .L48
 103:nmea/nmea.c   ****     return NMEA_INVALID_SENTENCE;
 104:nmea/nmea.c   **** 
 105:nmea/nmea.c   ****   sscanf_P(token,
 544               		.loc 1 105 0
 545 02ec 2DB7      		in r18,__SP_L__
 546 02ee 3EB7      		in r19,__SP_H__
 547 02f0 2850      		subi r18,lo8(-(-8))
 548 02f2 3040      		sbci r19,hi8(-(-8))
 549 02f4 2DBF      		out __SP_L__,r18
 550 02f6 3EBF      		out __SP_H__,r19
 551 02f8 EDB7      		in r30,__SP_L__
 552 02fa FEB7      		in r31,__SP_H__
 553 02fc 3196      		adiw r30,1
 554 02fe ADB7      		in r26,__SP_L__
 555 0300 BEB7      		in r27,__SP_H__
 556 0302 1196      		adiw r26,1
 557 0304 8D93      		st X+,r24
 558 0306 9C93      		st X,r25
 559 0308 1297      		sbiw r26,1+1
 560 030a 80E0      		ldi r24,lo8(__c.4015)
 561 030c 90E0      		ldi r25,hi8(__c.4015)
 562               	.LVL31:
 563 030e 8283      		std Z+2,r24
 564 0310 9383      		std Z+3,r25
 565 0312 CE01      		movw r24,r28
 566 0314 0A96      		adiw r24,10
 567 0316 8483      		std Z+4,r24
 568 0318 9583      		std Z+5,r25
 569 031a CE01      		movw r24,r28
 570 031c 0696      		adiw r24,6
 571 031e 8683      		std Z+6,r24
 572 0320 9783      		std Z+7,r25
 573               		.cfi_escape 0x2e,0x8
 574 0322 0E94 0000 		call sscanf_P
 575               	.LVL32:
 106:nmea/nmea.c   ****     PSTR("%03f%07f"),
 107:nmea/nmea.c   ****     &lon_degrees,
 108:nmea/nmea.c   ****     &lon_minutes
 109:nmea/nmea.c   ****   );
 110:nmea/nmea.c   **** 
 111:nmea/nmea.c   ****   /* Longitude hemisphere */
 112:nmea/nmea.c   ****   if((token = strsep(&sentence, comma)) == NULL)
 576               		.loc 1 112 0
 577 0326 EDB7      		in r30,__SP_L__
 578 0328 FEB7      		in r31,__SP_H__
 579 032a 3896      		adiw r30,8
 580 032c EDBF      		out __SP_L__,r30
 581 032e FEBF      		out __SP_H__,r31
 582 0330 CE01      		movw r24,r28
 583 0332 4696      		adiw r24,22
 584 0334 60E0      		ldi r22,lo8(.LC0)
 585 0336 70E0      		ldi r23,hi8(.LC0)
 586               		.cfi_escape 0x2e,0
 587 0338 0E94 0000 		call strsep
 588               	.LVL33:
 589 033c 0097      		sbiw r24,0
 590 033e 01F4      		brne .+2
 591 0340 00C0      		rjmp .L48
 113:nmea/nmea.c   ****     return NMEA_INVALID_SENTENCE;
 114:nmea/nmea.c   **** 
 115:nmea/nmea.c   ****   sscanf_P(token,
 592               		.loc 1 115 0
 593 0342 00D0      		rcall .
 594 0344 00D0      		rcall .
 595 0346 00D0      		rcall .
 596 0348 EDB7      		in r30,__SP_L__
 597 034a FEB7      		in r31,__SP_H__
 598 034c 3196      		adiw r30,1
 599 034e ADB7      		in r26,__SP_L__
 600 0350 BEB7      		in r27,__SP_H__
 601 0352 1196      		adiw r26,1
 602 0354 8D93      		st X+,r24
 603 0356 9C93      		st X,r25
 604 0358 1297      		sbiw r26,1+1
 605 035a 80E0      		ldi r24,lo8(__c.4017)
 606 035c 90E0      		ldi r25,hi8(__c.4017)
 607               	.LVL34:
 608 035e 8283      		std Z+2,r24
 609 0360 9383      		std Z+3,r25
 610 0362 CE01      		movw r24,r28
 611 0364 0196      		adiw r24,1
 612 0366 8483      		std Z+4,r24
 613 0368 9583      		std Z+5,r25
 614               		.cfi_escape 0x2e,0x6
 615 036a 0E94 0000 		call sscanf_P
 616               	.LVL35:
 116:nmea/nmea.c   ****     PSTR("%c"),
 117:nmea/nmea.c   ****     &lon_hemisphere
 118:nmea/nmea.c   ****   );
 119:nmea/nmea.c   **** 
 120:nmea/nmea.c   ****   /* Combine longitude degrees and minutes and adjust for hemisphere */
 121:nmea/nmea.c   ****   data->longitude = (lon_degrees + (lon_minutes / 60.0))
 617               		.loc 1 121 0
 618 036e 6E81      		ldd r22,Y+6
 619 0370 7F81      		ldd r23,Y+7
 620 0372 8885      		ldd r24,Y+8
 621 0374 9985      		ldd r25,Y+9
 622 0376 20E0      		ldi r18,lo8(0x42700000)
 623 0378 30E0      		ldi r19,hi8(0x42700000)
 624 037a 40E7      		ldi r20,hlo8(0x42700000)
 625 037c 52E4      		ldi r21,hhi8(0x42700000)
 626               		.cfi_escape 0x2e,0
 627 037e 0E94 0000 		call __divsf3
 628               	.LVL36:
 629 0382 2A85      		ldd r18,Y+10
 630 0384 3B85      		ldd r19,Y+11
 631 0386 4C85      		ldd r20,Y+12
 632 0388 5D85      		ldd r21,Y+13
 633 038a 0E94 0000 		call __addsf3
 122:nmea/nmea.c   ****     * (lon_hemisphere == 'E' ? 1.0 : -1.0);
 634               		.loc 1 122 0
 635 038e EDB7      		in r30,__SP_L__
 636 0390 FEB7      		in r31,__SP_H__
 637 0392 3696      		adiw r30,6
 638 0394 EDBF      		out __SP_L__,r30
 639 0396 FEBF      		out __SP_H__,r31
 640               	.LVL37:
 641 0398 2981      		ldd r18,Y+1
 642 039a 2534      		cpi r18,lo8(69)
 643 039c 01F4      		brne .+2
 644 039e 00C0      		rjmp .L55
 645 03a0 20E0      		ldi r18,lo8(0xbf800000)
 646 03a2 30E0      		ldi r19,hi8(0xbf800000)
 647 03a4 40E8      		ldi r20,hlo8(0xbf800000)
 648 03a6 5FEB      		ldi r21,hhi8(0xbf800000)
 649               	.L21:
 650               		.loc 1 122 0 is_stmt 0 discriminator 3
 651 03a8 E82E      		mov r14,r24
 652 03aa 988F      		std Y+24,r25
 653 03ac CB01      		movw r24,r22
 654 03ae AE2D      		mov r26,r14
 655 03b0 B88D      		ldd r27,Y+24
 656 03b2 BC01      		movw r22,r24
 657 03b4 CD01      		movw r24,r26
 658 03b6 0E94 0000 		call __mulsf3
 659 03ba E62E      		mov r14,r22
 660 03bc 788F      		std Y+24,r23
 661 03be 8E8F      		std Y+30,r24
 662 03c0 98A3      		std Y+32,r25
 121:nmea/nmea.c   ****   data->longitude = (lon_degrees + (lon_minutes / 60.0))
 663               		.loc 1 121 0 is_stmt 1 discriminator 3
 664 03c2 262F      		mov r18,r22
 665 03c4 372F      		mov r19,r23
 666 03c6 AC01      		movw r20,r24
 667 03c8 C901      		movw r24,r18
 668 03ca DA01      		movw r26,r20
 669 03cc F601      		movw r30,r12
 670 03ce 8787      		std Z+15,r24
 671 03d0 908B      		std Z+16,r25
 672 03d2 A18B      		std Z+17,r26
 673 03d4 B28B      		std Z+18,r27
 123:nmea/nmea.c   **** 
 124:nmea/nmea.c   ****   if(data->longitude < -180.0 || data->longitude > 180.0)
 674               		.loc 1 124 0 discriminator 3
 675 03d6 BC01      		movw r22,r24
 676 03d8 CD01      		movw r24,r26
 677 03da 20E0      		ldi r18,lo8(0xc3340000)
 678 03dc 30E0      		ldi r19,hi8(0xc3340000)
 679 03de 44E3      		ldi r20,hlo8(0xc3340000)
 680 03e0 53EC      		ldi r21,hhi8(0xc3340000)
 681 03e2 0E94 0000 		call __ltsf2
 682 03e6 87FD      		sbrc r24,7
 683 03e8 00C0      		rjmp .L23
 684               		.loc 1 124 0 is_stmt 0 discriminator 1
 685 03ea 2E2D      		mov r18,r14
 686 03ec 388D      		ldd r19,Y+24
 687 03ee 4E8D      		ldd r20,Y+30
 688 03f0 58A1      		ldd r21,Y+32
 689 03f2 C901      		movw r24,r18
 690 03f4 DA01      		movw r26,r20
 691 03f6 BC01      		movw r22,r24
 692 03f8 CD01      		movw r24,r26
 693 03fa 20E0      		ldi r18,lo8(0x43340000)
 694 03fc 30E0      		ldi r19,hi8(0x43340000)
 695 03fe 44E3      		ldi r20,hlo8(0x43340000)
 696 0400 53E4      		ldi r21,hhi8(0x43340000)
 697 0402 0E94 0000 		call __gtsf2
 698 0406 1816      		cp __zero_reg__,r24
 699 0408 04F0      		brlt .L23
 700               		.loc 1 124 0
 701 040a 8C8C      		ldd r8,Y+28
 702 040c 9D8C      		ldd r9,Y+29
 703 040e 0A8D      		ldd r16,Y+26
 704 0410 1B8D      		ldd r17,Y+27
 705 0412 3201      		movw r6,r4
 706 0414 5101      		movw r10,r2
 707               	.L23:
 708               	.LVL38:
 125:nmea/nmea.c   ****     invalidity |= NMEA_INVALID_LONGITUDE;
 126:nmea/nmea.c   **** 
 127:nmea/nmea.c   ****   /* Speed in knots */
 128:nmea/nmea.c   ****   if((token = strsep(&sentence, comma)) == NULL)
 709               		.loc 1 128 0 is_stmt 1
 710 0416 CE01      		movw r24,r28
 711 0418 4696      		adiw r24,22
 712 041a 60E0      		ldi r22,lo8(.LC0)
 713 041c 70E0      		ldi r23,hi8(.LC0)
 714 041e 0E94 0000 		call strsep
 715               	.LVL39:
 716 0422 0097      		sbiw r24,0
 717 0424 01F4      		brne .+2
 718 0426 00C0      		rjmp .L48
 129:nmea/nmea.c   ****     return NMEA_INVALID_SENTENCE;
 130:nmea/nmea.c   **** 
 131:nmea/nmea.c   ****   sscanf_P(token,
 719               		.loc 1 131 0
 720 0428 00D0      		rcall .
 721 042a 00D0      		rcall .
 722 042c 00D0      		rcall .
 723 042e EDB7      		in r30,__SP_L__
 724 0430 FEB7      		in r31,__SP_H__
 725 0432 3196      		adiw r30,1
 726 0434 ADB7      		in r26,__SP_L__
 727 0436 BEB7      		in r27,__SP_H__
 728 0438 1196      		adiw r26,1
 729 043a 8D93      		st X+,r24
 730 043c 9C93      		st X,r25
 731 043e 1297      		sbiw r26,1+1
 732 0440 80E0      		ldi r24,lo8(__c.4019)
 733 0442 90E0      		ldi r25,hi8(__c.4019)
 734               	.LVL40:
 735 0444 8283      		std Z+2,r24
 736 0446 9383      		std Z+3,r25
 737 0448 C601      		movw r24,r12
 738 044a 4396      		adiw r24,19
 739 044c 8483      		std Z+4,r24
 740 044e 9583      		std Z+5,r25
 741               		.cfi_escape 0x2e,0x6
 742 0450 0E94 0000 		call sscanf_P
 743               	.LVL41:
 132:nmea/nmea.c   ****     PSTR("%f"),
 133:nmea/nmea.c   ****     &data->speed
 134:nmea/nmea.c   ****   );
 135:nmea/nmea.c   **** 
 136:nmea/nmea.c   ****   /* Heading in degrees */
 137:nmea/nmea.c   ****   if((token = strsep(&sentence, comma)) == NULL)
 744               		.loc 1 137 0
 745 0454 EDB7      		in r30,__SP_L__
 746 0456 FEB7      		in r31,__SP_H__
 747 0458 3696      		adiw r30,6
 748 045a EDBF      		out __SP_L__,r30
 749 045c FEBF      		out __SP_H__,r31
 750 045e CE01      		movw r24,r28
 751 0460 4696      		adiw r24,22
 752 0462 60E0      		ldi r22,lo8(.LC0)
 753 0464 70E0      		ldi r23,hi8(.LC0)
 754               		.cfi_escape 0x2e,0
 755 0466 0E94 0000 		call strsep
 756               	.LVL42:
 757 046a 0097      		sbiw r24,0
 758 046c 01F4      		brne .+2
 759 046e 00C0      		rjmp .L48
 138:nmea/nmea.c   ****     return NMEA_INVALID_SENTENCE;
 139:nmea/nmea.c   **** 
 140:nmea/nmea.c   ****   sscanf_P(token,
 760               		.loc 1 140 0
 761 0470 00D0      		rcall .
 762 0472 00D0      		rcall .
 763 0474 00D0      		rcall .
 764 0476 EDB7      		in r30,__SP_L__
 765 0478 FEB7      		in r31,__SP_H__
 766 047a 3196      		adiw r30,1
 767 047c ADB7      		in r26,__SP_L__
 768 047e BEB7      		in r27,__SP_H__
 769 0480 1196      		adiw r26,1
 770 0482 8D93      		st X+,r24
 771 0484 9C93      		st X,r25
 772 0486 1297      		sbiw r26,1+1
 773 0488 80E0      		ldi r24,lo8(__c.4021)
 774 048a 90E0      		ldi r25,hi8(__c.4021)
 775               	.LVL43:
 776 048c 8283      		std Z+2,r24
 777 048e 9383      		std Z+3,r25
 778 0490 C601      		movw r24,r12
 779 0492 4796      		adiw r24,23
 780 0494 8483      		std Z+4,r24
 781 0496 9583      		std Z+5,r25
 782               		.cfi_escape 0x2e,0x6
 783 0498 0E94 0000 		call sscanf_P
 784               	.LVL44:
 141:nmea/nmea.c   ****     PSTR("%f"),
 142:nmea/nmea.c   ****     &data->heading
 143:nmea/nmea.c   ****   );
 144:nmea/nmea.c   **** 
 145:nmea/nmea.c   ****   /* Current UTC date */
 146:nmea/nmea.c   ****   if((token = strsep(&sentence, comma)) == NULL)
 785               		.loc 1 146 0
 786 049c EDB7      		in r30,__SP_L__
 787 049e FEB7      		in r31,__SP_H__
 788 04a0 3696      		adiw r30,6
 789 04a2 EDBF      		out __SP_L__,r30
 790 04a4 FEBF      		out __SP_H__,r31
 791 04a6 CE01      		movw r24,r28
 792 04a8 4696      		adiw r24,22
 793 04aa 60E0      		ldi r22,lo8(.LC0)
 794 04ac 70E0      		ldi r23,hi8(.LC0)
 795               		.cfi_escape 0x2e,0
 796 04ae 0E94 0000 		call strsep
 797               	.LVL45:
 798 04b2 0097      		sbiw r24,0
 799 04b4 01F4      		brne .+2
 800 04b6 00C0      		rjmp .L48
 147:nmea/nmea.c   ****     return NMEA_INVALID_SENTENCE;
 148:nmea/nmea.c   **** 
 149:nmea/nmea.c   ****   sscanf_P(token,
 801               		.loc 1 149 0
 802 04b8 2DB7      		in r18,__SP_L__
 803 04ba 3EB7      		in r19,__SP_H__
 804 04bc 2A50      		subi r18,lo8(-(-10))
 805 04be 3040      		sbci r19,hi8(-(-10))
 806 04c0 2DBF      		out __SP_L__,r18
 807 04c2 3EBF      		out __SP_H__,r19
 808 04c4 EDB7      		in r30,__SP_L__
 809 04c6 FEB7      		in r31,__SP_H__
 810 04c8 3196      		adiw r30,1
 811 04ca ADB7      		in r26,__SP_L__
 812 04cc BEB7      		in r27,__SP_H__
 813 04ce 1196      		adiw r26,1
 814 04d0 8D93      		st X+,r24
 815 04d2 9C93      		st X,r25
 816 04d4 1297      		sbiw r26,1+1
 817 04d6 80E0      		ldi r24,lo8(__c.4023)
 818 04d8 90E0      		ldi r25,hi8(__c.4023)
 819               	.LVL46:
 820 04da 8283      		std Z+2,r24
 821 04dc 9383      		std Z+3,r25
 822 04de C601      		movw r24,r12
 823 04e0 0596      		adiw r24,5
 824 04e2 8483      		std Z+4,r24
 825 04e4 9583      		std Z+5,r25
 826 04e6 C601      		movw r24,r12
 827 04e8 0496      		adiw r24,4
 828 04ea 8683      		std Z+6,r24
 829 04ec 9783      		std Z+7,r25
 830 04ee C601      		movw r24,r12
 831 04f0 0296      		adiw r24,2
 832 04f2 8087      		std Z+8,r24
 833 04f4 9187      		std Z+9,r25
 834               		.cfi_escape 0x2e,0xa
 835 04f6 0E94 0000 		call sscanf_P
 836               	.LVL47:
 150:nmea/nmea.c   ****     PSTR("%02hhd%02hhd%02hd"),
 151:nmea/nmea.c   ****     &data->date,
 152:nmea/nmea.c   ****     &data->month,
 153:nmea/nmea.c   ****     &data->year
 154:nmea/nmea.c   ****   );
 155:nmea/nmea.c   **** 
 156:nmea/nmea.c   ****   /* Since 1980 is long past, if we see this year it's a good assumption
 157:nmea/nmea.c   ****    * that the data is invalid.
 158:nmea/nmea.c   ****    */
 159:nmea/nmea.c   ****   if(data->year == 80)
 837               		.loc 1 159 0
 838 04fa F601      		movw r30,r12
 839 04fc 2281      		ldd r18,Z+2
 840 04fe 3381      		ldd r19,Z+3
 841 0500 8DB7      		in r24,__SP_L__
 842 0502 9EB7      		in r25,__SP_H__
 843 0504 0A96      		adiw r24,10
 844 0506 8DBF      		out __SP_L__,r24
 845 0508 9EBF      		out __SP_H__,r25
 846 050a 2035      		cpi r18,80
 847 050c 3105      		cpc r19,__zero_reg__
 848 050e 01F4      		brne .+2
 849 0510 00C0      		rjmp .L45
 160:nmea/nmea.c   ****     invalidity |= NMEA_INVALID_DATE;
 161:nmea/nmea.c   **** 
 162:nmea/nmea.c   ****   /* Adjust year based on GPS epoch of 1980 */
 163:nmea/nmea.c   ****   data->year += (data->year) < 80 ? 2000 : 1900;
 850               		.loc 1 163 0
 851 0512 2035      		cpi r18,80
 852 0514 3105      		cpc r19,__zero_reg__
 853 0516 00F0      		brlo .+2
 854 0518 00C0      		rjmp .L46
 855 051a 80ED      		ldi r24,lo8(2000)
 856 051c 97E0      		ldi r25,hi8(2000)
 857               	.LVL48:
 858               	.L25:
 859               		.loc 1 163 0 is_stmt 0 discriminator 3
 860 051e 820F      		add r24,r18
 861 0520 931F      		adc r25,r19
 862 0522 D601      		movw r26,r12
 863 0524 1296      		adiw r26,2
 864 0526 8D93      		st X+,r24
 865 0528 9C93      		st X,r25
 866 052a 1397      		sbiw r26,2+1
 164:nmea/nmea.c   **** 
 165:nmea/nmea.c   ****   /* Magnetic variation in degrees (unused) */
 166:nmea/nmea.c   ****   if((token = strsep(&sentence, comma)) == NULL)
 867               		.loc 1 166 0 is_stmt 1 discriminator 3
 868 052c CE01      		movw r24,r28
 869 052e 4696      		adiw r24,22
 870 0530 60E0      		ldi r22,lo8(.LC0)
 871 0532 70E0      		ldi r23,hi8(.LC0)
 872               		.cfi_escape 0x2e,0
 873 0534 0E94 0000 		call strsep
 874               	.LVL49:
 875 0538 0097      		sbiw r24,0
 876 053a 01F4      		brne .+2
 877 053c 00C0      		rjmp .L48
 167:nmea/nmea.c   ****     return NMEA_INVALID_SENTENCE;
 168:nmea/nmea.c   **** 
 169:nmea/nmea.c   ****   /* Magnetic variation compass direction */
 170:nmea/nmea.c   ****   if((token = strsep(&sentence, comma)) == NULL)
 878               		.loc 1 170 0
 879 053e CE01      		movw r24,r28
 880               	.LVL50:
 881 0540 4696      		adiw r24,22
 882 0542 60E0      		ldi r22,lo8(.LC0)
 883 0544 70E0      		ldi r23,hi8(.LC0)
 884 0546 0E94 0000 		call strsep
 885 054a 4C01      		movw r8,r24
 886               	.LVL51:
 887 054c 0097      		sbiw r24,0
 888 054e 01F4      		brne .+2
 889 0550 00C0      		rjmp .L48
 171:nmea/nmea.c   ****     return NMEA_INVALID_SENTENCE;
 172:nmea/nmea.c   **** 
 173:nmea/nmea.c   ****   /* Mode: A = Autonomous operation; N = Data not valid */
 174:nmea/nmea.c   ****   // if((token = strsep(&sentence, "*")) == NULL)
 175:nmea/nmea.c   ****   //   return NMEA_INVALID_SENTENCE;
 176:nmea/nmea.c   **** 
 177:nmea/nmea.c   ****   sscanf_P(token,
 890               		.loc 1 177 0
 891 0552 00D0      		rcall .
 892 0554 00D0      		rcall .
 893 0556 00D0      		rcall .
 894 0558 EDB7      		in r30,__SP_L__
 895 055a FEB7      		in r31,__SP_H__
 896 055c 3196      		adiw r30,1
 897 055e ADB7      		in r26,__SP_L__
 898 0560 BEB7      		in r27,__SP_H__
 899 0562 1196      		adiw r26,1
 900 0564 8D93      		st X+,r24
 901 0566 9C93      		st X,r25
 902 0568 1297      		sbiw r26,1+1
 903 056a 80E0      		ldi r24,lo8(__c.4025)
 904 056c 90E0      		ldi r25,hi8(__c.4025)
 905               	.LVL52:
 906 056e 8283      		std Z+2,r24
 907 0570 9383      		std Z+3,r25
 908 0572 C601      		movw r24,r12
 909 0574 0196      		adiw r24,1
 910 0576 8483      		std Z+4,r24
 911 0578 9583      		std Z+5,r25
 912               		.cfi_escape 0x2e,0x6
 913 057a 0E94 0000 		call sscanf_P
 178:nmea/nmea.c   ****     PSTR("%c"),
 179:nmea/nmea.c   ****     &data->mode
 180:nmea/nmea.c   ****   );
 181:nmea/nmea.c   **** 
 182:nmea/nmea.c   ****   if(data->mode != 'A')
 914               		.loc 1 182 0
 915 057e EDB7      		in r30,__SP_L__
 916 0580 FEB7      		in r31,__SP_H__
 917 0582 3696      		adiw r30,6
 918 0584 EDBF      		out __SP_L__,r30
 919 0586 FEBF      		out __SP_H__,r31
 920 0588 D601      		movw r26,r12
 921 058a 1196      		adiw r26,1
 922 058c 8C91      		ld r24,X
 923 058e 1197      		sbiw r26,1
 924 0590 8134      		cpi r24,lo8(65)
 925 0592 01F0      		breq .L26
 926               	.LVL53:
 183:nmea/nmea.c   ****     invalidity |= NMEA_INVALID_STATUS;
 927               		.loc 1 183 0
 928 0594 5801      		movw r10,r16
 929               	.LVL54:
 930               	.L26:
 184:nmea/nmea.c   **** 
 185:nmea/nmea.c   ****   /* Checksum, one byte as a hexadecimal string */
 186:nmea/nmea.c   ****   // if((token = strsep(&sentence, "\n")) == NULL)
 187:nmea/nmea.c   ****   //   return NMEA_INVALID_SENTENCE;
 188:nmea/nmea.c   **** 
 189:nmea/nmea.c   ****   sscanf_P(token,
 931               		.loc 1 189 0
 932 0596 00D0      		rcall .
 933 0598 00D0      		rcall .
 934 059a 00D0      		rcall .
 935 059c EDB7      		in r30,__SP_L__
 936 059e FEB7      		in r31,__SP_H__
 937 05a0 3196      		adiw r30,1
 938 05a2 ADB7      		in r26,__SP_L__
 939 05a4 BEB7      		in r27,__SP_H__
 940 05a6 1196      		adiw r26,1
 941 05a8 8D92      		st X+,r8
 942 05aa 9C92      		st X,r9
 943 05ac 1297      		sbiw r26,1+1
 944 05ae 80E0      		ldi r24,lo8(__c.4027)
 945 05b0 90E0      		ldi r25,hi8(__c.4027)
 946 05b2 8283      		std Z+2,r24
 947 05b4 9383      		std Z+3,r25
 190:nmea/nmea.c   ****     PSTR("%2s"),
 191:nmea/nmea.c   ****     checksum_buffer
 948               		.loc 1 191 0
 949 05b6 8E01      		movw r16,r28
 950 05b8 0D5F      		subi r16,lo8(-(3))
 951 05ba 1F4F      		sbci r17,hi8(-(3))
 189:nmea/nmea.c   ****   sscanf_P(token,
 952               		.loc 1 189 0
 953 05bc 0483      		std Z+4,r16
 954 05be 1583      		std Z+5,r17
 955 05c0 0E94 0000 		call sscanf_P
 192:nmea/nmea.c   ****   );
 193:nmea/nmea.c   **** 
 194:nmea/nmea.c   ****   /* Convert the checksum from a hexadecimal string */
 195:nmea/nmea.c   ****   data->checksum = strtoul(checksum_buffer, NULL, 16);
 956               		.loc 1 195 0
 957 05c4 EDB7      		in r30,__SP_L__
 958 05c6 FEB7      		in r31,__SP_H__
 959 05c8 3696      		adiw r30,6
 960 05ca EDBF      		out __SP_L__,r30
 961 05cc FEBF      		out __SP_H__,r31
 962 05ce C801      		movw r24,r16
 963 05d0 60E0      		ldi r22,lo8(0)
 964 05d2 70E0      		ldi r23,hi8(0)
 965 05d4 40E1      		ldi r20,lo8(16)
 966 05d6 50E0      		ldi r21,hi8(16)
 967               		.cfi_escape 0x2e,0
 968 05d8 0E94 0000 		call strtoul
 969 05dc D601      		movw r26,r12
 970 05de 5B96      		adiw r26,27
 971 05e0 6C93      		st X,r22
 972 05e2 5B97      		sbiw r26,27
 196:nmea/nmea.c   **** 
 197:nmea/nmea.c   ****   /* Verify that the checksum of the string matches the stored one */
 198:nmea/nmea.c   ****   if(data->checksum != sentence_checksum)
 973               		.loc 1 198 0
 974 05e4 6F15      		cp r22,r15
 975 05e6 01F0      		breq .L13
 199:nmea/nmea.c   ****     invalidity |= NMEA_INVALID_CHECKSUM;
 976               		.loc 1 199 0
 977 05e8 E0E0      		ldi r30,lo8(-32768)
 978 05ea F0E8      		ldi r31,hi8(-32768)
 979 05ec AE2A      		or r10,r30
 980 05ee BF2A      		or r11,r31
 981               	.LVL55:
 982 05f0 00C0      		rjmp .L13
 983               	.LVL56:
 984               	.L48:
 171:nmea/nmea.c   ****     return NMEA_INVALID_SENTENCE;
 985               		.loc 1 171 0
 986 05f2 82E0      		ldi r24,lo8(2)
 987 05f4 A82E      		mov r10,r24
 988 05f6 B12C      		mov r11,__zero_reg__
 989               	.LVL57:
 990               	.L13:
 200:nmea/nmea.c   **** 
 201:nmea/nmea.c   ****   return(invalidity);
 202:nmea/nmea.c   **** }
 991               		.loc 1 202 0
 992 05f8 C501      		movw r24,r10
 993               	/* epilogue start */
 994 05fa A096      		adiw r28,32
 995 05fc CDBF      		out __SP_L__,r28
 996 05fe DEBF      		out __SP_H__,r29
 997 0600 DF91      		pop r29
 998 0602 CF91      		pop r28
 999 0604 1F91      		pop r17
 1000 0606 0F91      		pop r16
 1001 0608 FF90      		pop r15
 1002 060a EF90      		pop r14
 1003 060c DF90      		pop r13
 1004 060e CF90      		pop r12
 1005               	.LVL58:
 1006 0610 BF90      		pop r11
 1007 0612 AF90      		pop r10
 1008 0614 9F90      		pop r9
 1009 0616 8F90      		pop r8
 1010 0618 7F90      		pop r7
 1011 061a 6F90      		pop r6
 1012 061c 5F90      		pop r5
 1013 061e 4F90      		pop r4
 1014 0620 3F90      		pop r3
 1015 0622 2F90      		pop r2
 1016 0624 0895      		ret
 1017               	.LVL59:
 1018               	.L27:
  41:nmea/nmea.c   ****     return NMEA_INVALID_TYPE;
 1019               		.loc 1 41 0
 1020 0626 91E0      		ldi r25,lo8(1)
 1021 0628 A92E      		mov r10,r25
 1022 062a B12C      		mov r11,__zero_reg__
 1023 062c 00C0      		rjmp .L13
 1024               	.LVL60:
 1025               	.L52:
 1026               	.LBB20:
 1027               	.LBB18:
  18:nmea/nmea.c   ****   for(; *s != '*' && *s != 0; s++)
 1028               		.loc 1 18 0
 1029 062e 1196      		adiw r26,1
 1030 0630 8C91      		ld r24,X
 1031 0632 1197      		sbiw r26,1
 1032 0634 8A32      		cpi r24,lo8(42)
 1033 0636 01F4      		brne .+2
 1034 0638 00C0      		rjmp .L30
 1035 063a 8823      		tst r24
 1036 063c 01F4      		brne .+2
 1037 063e 00C0      		rjmp .L30
  25:nmea/nmea.c   **** unsigned int nmea_parse_gprmc(char *sentence, nmea_gprmc_t *data)
 1038               		.loc 1 25 0
 1039 0640 F801      		movw r30,r16
 1040 0642 3296      		adiw r30,2
 1041               	.LBE18:
 1042               	.LBE20:
 1043 0644 FF24      		clr r15
 1044 0646 00C0      		rjmp .L15
 1045               	.LVL61:
 1046               	.L56:
 1047               	.LBB21:
 1048               	.LBB19:
  18:nmea/nmea.c   ****   for(; *s != '*' && *s != 0; s++)
 1049               		.loc 1 18 0
 1050 0648 8823      		tst r24
 1051 064a 01F4      		brne .+2
 1052 064c 00C0      		rjmp .L14
 1053               	.LVL62:
 1054               	.L15:
  20:nmea/nmea.c   ****     checksum ^= *s;
 1055               		.loc 1 20 0
 1056 064e F826      		eor r15,r24
 1057               	.LVL63:
  18:nmea/nmea.c   ****   for(; *s != '*' && *s != 0; s++)
 1058               		.loc 1 18 0
 1059 0650 8191      		ld r24,Z+
 1060 0652 8A32      		cpi r24,lo8(42)
 1061 0654 01F4      		brne .L56
 1062 0656 00C0      		rjmp .L14
 1063               	.LVL64:
 1064               	.L53:
 1065               	.LBE19:
 1066               	.LBE21:
  72:nmea/nmea.c   ****   if(data->status != 'A')
 1067               		.loc 1 72 0
 1068 0658 E8E0      		ldi r30,lo8(8)
 1069 065a F0E0      		ldi r31,hi8(8)
 1070 065c EE8F      		std Y+30,r30
 1071 065e FF8F      		std Y+31,r31
 1072 0660 28E2      		ldi r18,lo8(40)
 1073 0662 30E0      		ldi r19,hi8(40)
 1074 0664 288F      		std Y+24,r18
 1075 0666 398F      		std Y+25,r19
 1076 0668 80E2      		ldi r24,lo8(32)
 1077 066a 90E0      		ldi r25,hi8(32)
 1078 066c 8C8F      		std Y+28,r24
 1079 066e 9D8F      		std Y+29,r25
 1080 0670 08E1      		ldi r16,lo8(24)
 1081 0672 402E      		mov r4,r16
 1082 0674 512C      		mov r5,__zero_reg__
 1083 0676 48E3      		ldi r20,lo8(56)
 1084 0678 642E      		mov r6,r20
 1085 067a 712C      		mov r7,__zero_reg__
 1086 067c 50E3      		ldi r21,lo8(48)
 1087 067e A52E      		mov r10,r21
 1088 0680 B12C      		mov r11,__zero_reg__
 1089 0682 60E1      		ldi r22,lo8(16)
 1090 0684 262E      		mov r2,r22
 1091 0686 312C      		mov r3,__zero_reg__
  37:nmea/nmea.c   ****   unsigned int invalidity = 0;
 1092               		.loc 1 37 0
 1093 0688 1A8E      		std Y+26,__zero_reg__
 1094 068a 1B8E      		std Y+27,__zero_reg__
 1095 068c 00C0      		rjmp .L16
 1096               	.LVL65:
 1097               	.L18:
  98:nmea/nmea.c   ****   if(data->latitude < -90.0 || data->latitude > 90.0)
 1098               		.loc 1 98 0
 1099 068e 28E1      		ldi r18,lo8(16408)
 1100 0690 30E4      		ldi r19,hi8(16408)
 1101 0692 2C8F      		std Y+28,r18
 1102 0694 3D8F      		std Y+29,r19
 1103 0696 80E1      		ldi r24,lo8(16400)
 1104 0698 90E4      		ldi r25,hi8(16400)
 1105 069a 8A8F      		std Y+26,r24
 1106 069c 9B8F      		std Y+27,r25
 1107 069e 48E3      		ldi r20,lo8(16440)
 1108 06a0 842E      		mov r8,r20
 1109 06a2 40E4      		ldi r20,hi8(16440)
 1110 06a4 942E      		mov r9,r20
 1111 06a6 00E3      		ldi r16,lo8(16432)
 1112 06a8 10E4      		ldi r17,hi8(16432)
 1113 06aa 00C0      		rjmp .L19
 1114               	.LVL66:
 1115               	.L54:
  96:nmea/nmea.c   ****     * (lat_hemisphere == 'N' ? 1.0 : -1.0);
 1116               		.loc 1 96 0
 1117 06ac 20E0      		ldi r18,lo8(0x3f800000)
 1118 06ae 30E0      		ldi r19,hi8(0x3f800000)
 1119 06b0 40E8      		ldi r20,hlo8(0x3f800000)
 1120 06b2 5FE3      		ldi r21,hhi8(0x3f800000)
 1121 06b4 00C0      		rjmp .L17
 1122               	.LVL67:
 1123               	.L55:
 122:nmea/nmea.c   ****     * (lon_hemisphere == 'E' ? 1.0 : -1.0);
 1124               		.loc 1 122 0
 1125 06b6 20E0      		ldi r18,lo8(0x3f800000)
 1126 06b8 30E0      		ldi r19,hi8(0x3f800000)
 1127 06ba 40E8      		ldi r20,hlo8(0x3f800000)
 1128 06bc 5FE3      		ldi r21,hhi8(0x3f800000)
 1129               	.LVL68:
 1130 06be 00C0      		rjmp .L21
 1131               	.LVL69:
 1132               	.L46:
 163:nmea/nmea.c   ****   data->year += (data->year) < 80 ? 2000 : 1900;
 1133               		.loc 1 163 0
 1134 06c0 8CE6      		ldi r24,lo8(1900)
 1135 06c2 97E0      		ldi r25,hi8(1900)
 1136 06c4 00C0      		rjmp .L25
 1137               	.L45:
 159:nmea/nmea.c   ****   if(data->year == 80)
 1138               		.loc 1 159 0
 1139 06c6 8401      		movw r16,r8
 160:nmea/nmea.c   ****     invalidity |= NMEA_INVALID_DATE;
 1140               		.loc 1 160 0
 1141 06c8 5301      		movw r10,r6
 1142               	.LVL70:
 163:nmea/nmea.c   ****   data->year += (data->year) < 80 ? 2000 : 1900;
 1143               		.loc 1 163 0
 1144 06ca 8CE6      		ldi r24,lo8(1900)
 1145 06cc 97E0      		ldi r25,hi8(1900)
 1146 06ce 00C0      		rjmp .L25
 1147               		.cfi_endproc
 1148               	.LFE3:
 1150               		.section	.progmem.data,"a",@progbits
 1153               	__c.4005:
 1154 0000 2447 5052 		.string	"$GPRMC,"
 1154      4D43 2C00 
 1157               	__c.4007:
 1158 0008 2530 3268 		.string	"%02hhd%02hhd%02hhd.%03hd"
 1158      6864 2530 
 1158      3268 6864 
 1158      2530 3268 
 1158      6864 2E25 
 1161               	__c.4009:
 1162 0021 2563 00   		.string	"%c"
 1165               	__c.4011:
 1166 0024 2530 3266 		.string	"%02f%07f"
 1166      2530 3766 
 1166      00
 1169               	__c.4013:
 1170 002d 2563 00   		.string	"%c"
 1173               	__c.4015:
 1174 0030 2530 3366 		.string	"%03f%07f"
 1174      2530 3766 
 1174      00
 1177               	__c.4017:
 1178 0039 2563 00   		.string	"%c"
 1181               	__c.4019:
 1182 003c 2566 00   		.string	"%f"
 1185               	__c.4021:
 1186 003f 2566 00   		.string	"%f"
 1189               	__c.4023:
 1190 0042 2530 3268 		.string	"%02hhd%02hhd%02hd"
 1190      6864 2530 
 1190      3268 6864 
 1190      2530 3268 
 1190      6400 
 1193               	__c.4025:
 1194 0054 2563 00   		.string	"%c"
 1197               	__c.4027:
 1198 0057 2532 7300 		.string	"%2s"
 1199               		.text
 1200               	.Letext0:
 1201               		.file 2 "/usr/lib/gcc/avr/4.6.2/../../../avr/include/stdint.h"
 1202               		.file 3 "nmea/nmea.h"